; Function Attrs: null_pointer_is_valid sspstrong uwtable
define internal void @rs10(ptr noundef %0, ptr readnone captures(none) %1, ptr noundef %2) #0 {
  %4 = load i32, ptr @hf_ipmi_se_10_pef_version, align 4
  %5 = tail call ptr @proto_tree_add_item(ptr noundef %2, i32 noundef %4, ptr noundef %0, i32 noundef 0, i32 noundef 1, i32 noundef -2147483648)
  %6 = load i32, ptr @ett_ipmi_se_10_action, align 4
  %7 = tail call ptr @proto_tree_add_bitmask_text(ptr noundef %2, ptr noundef %0, i32 noundef 1, i32 noundef 1, ptr noundef nonnull @.str.1131, ptr noundef nonnull @.str.676, i32 noundef %6, ptr noundef nonnull @rs10.byte2, i32 noundef -2147483648, i32 noundef 0)
  %8 = load i32, ptr @hf_ipmi_se_10_entries, align 4
  %9 = tail call ptr @proto_tree_add_item(ptr noundef %2, i32 noundef %8, ptr noundef %0, i32 noundef 2, i32 noundef 1, i32 noundef -2147483648)
  ret void
}